target datalayout = "e-m:e-p270:32:32-p271:32:32-p272:64:64-i64:64-i128:128-f80:128-n8:16:32:64-S128"
target triple = "x86_64-pc-linux-gnu"

%"class.std::__cxx11::basic_string" = type { %"struct.std::__cxx11::basic_string<char>::_Alloc_hider", i64, %union.anon }
%"struct.std::__cxx11::basic_string<char>::_Alloc_hider" = type { ptr }
%union.anon = type { i64, [8 x i8] }
%"struct.rocksdb::BlockCacheTraceRecord" = type <{ i64, %"class.std::__cxx11::basic_string", i8, [7 x i8], i64, i64, %"class.std::__cxx11::basic_string", i32, [4 x i8], i64, i8, i8, i8, [5 x i8], i64, i8, [7 x i8], %"class.std::__cxx11::basic_string", i64, i64, i8, [7 x i8] }>

; Function Attrs: mustprogress nounwind uwtable
define available_externally noundef ptr @_ZNKSt7__cxx1112basic_stringIcSt11char_traitsIcESaIcEE7_M_dataEv(ptr noundef nonnull align 8 dereferenceable(32) %0) #4 align 2 {
  %2 = alloca ptr, align 8
  store ptr %0, ptr %2, align 8, !tbaa !30
  %3 = load ptr, ptr %2, align 8
  %4 = getelementptr inbounds nuw %"class.std::__cxx11::basic_string", ptr %3, i32 0, i32 0
  %5 = getelementptr inbounds nuw %"struct.std::__cxx11::basic_string<char>::_Alloc_hider", ptr %4, i32 0, i32 0
  %6 = load ptr, ptr %5, align 8, !tbaa !227
  ret ptr %6
}

; Function Attrs: inlinehint mustprogress nounwind uwtable
define linkonce_odr noundef i32 @_ZN7rocksdb13DecodeFixed32EPKc(ptr noundef %0) #1 comdat {
  %2 = alloca ptr, align 8
  %3 = alloca i32, align 4
  store ptr %0, ptr %2, align 8, !tbaa !13
  call void @llvm.lifetime.start.p0(i64 4, ptr %3) #5
  %4 = load ptr, ptr %2, align 8, !tbaa !13
  call void @llvm.memcpy.p0.p0.i64(ptr align 4 %3, ptr align 1 %4, i64 4, i1 false)
  %5 = load i32, ptr %3, align 4, !tbaa !66
  call void @llvm.lifetime.end.p0(i64 4, ptr %3) #5
  ret i32 %5
}

; Function Attrs: mustprogress nounwind uwtable
define available_externally noundef ptr @_ZNKSt7__cxx1112basic_stringIcSt11char_traitsIcESaIcEE4dataEv(ptr noundef nonnull align 8 dereferenceable(32) %0) #4 align 2 {
  %2 = alloca ptr, align 8
  store ptr %0, ptr %2, align 8, !tbaa !30
  %3 = load ptr, ptr %2, align 8
  %4 = call noundef ptr @_ZNKSt7__cxx1112basic_stringIcSt11char_traitsIcESaIcEE7_M_dataEv(ptr noundef nonnull align 8 dereferenceable(32) %3)
  ret ptr %4
}

; Function Attrs: mustprogress nounwind uwtable
define available_externally noundef i64 @_ZNKSt7__cxx1112basic_stringIcSt11char_traitsIcESaIcEE4sizeEv(ptr noundef nonnull align 8 dereferenceable(32) %0) #4 align 2 {
  %2 = alloca ptr, align 8
  store ptr %0, ptr %2, align 8, !tbaa !30
  %3 = load ptr, ptr %2, align 8
  %4 = getelementptr inbounds nuw %"class.std::__cxx11::basic_string", ptr %3, i32 0, i32 1
  %5 = load i64, ptr %4, align 8, !tbaa !65
  ret i64 %5
}

; Function Attrs: mustprogress nounwind uwtable
define noundef zeroext i1 @_ZN7rocksdb21BlockCacheTraceHelper15IsGetOrMultiGetENS_17TableReaderCallerE(i8 noundef signext %0) #4 align 2 {
  %2 = alloca i8, align 1
  store i8 %0, ptr %2, align 1, !tbaa !54
  %3 = load i8, ptr %2, align 1, !tbaa !54
  %4 = sext i8 %3 to i32
  %5 = icmp eq i32 %4, 1
  br i1 %5, label %10, label %6

6:                                                ; preds = %1
  %7 = load i8, ptr %2, align 1, !tbaa !54
  %8 = sext i8 %7 to i32
  %9 = icmp eq i32 %8, 2
  br label %10

10:                                               ; preds = %6, %1
  %11 = phi i1 [ true, %1 ], [ %9, %6 ]
  ret i1 %11
}

; Function Attrs: mustprogress uwtable
define noundef i64 @_ZN7rocksdb21BlockCacheTraceHelper10GetTableIdERKNS_21BlockCacheTraceRecordE(ptr noundef nonnull align 8 dereferenceable(185) %0) #6 align 2 {
  %2 = alloca i64, align 8
  %3 = alloca ptr, align 8
  store ptr %0, ptr %3, align 8, !tbaa !56
  %4 = load ptr, ptr %3, align 8, !tbaa !56
  %5 = getelementptr inbounds nuw %"struct.rocksdb::BlockCacheTraceRecord", ptr %4, i32 0, i32 10
  %6 = load i8, ptr %5, align 8, !tbaa !58
  %7 = call noundef zeroext i1 @_ZN7rocksdb21BlockCacheTraceHelper15IsGetOrMultiGetENS_17TableReaderCallerE(i8 noundef signext %6)
  br i1 %7, label %8, label %13

8:                                                ; preds = %1
  %9 = load ptr, ptr %3, align 8, !tbaa !56
  %10 = getelementptr inbounds nuw %"struct.rocksdb::BlockCacheTraceRecord", ptr %9, i32 0, i32 17
  %11 = call noundef i64 @_ZNKSt7__cxx1112basic_stringIcSt11char_traitsIcESaIcEE4sizeEv(ptr noundef nonnull align 8 dereferenceable(32) %10) #5
  %12 = icmp ult i64 %11, 4
  br i1 %12, label %13, label %14

13:                                               ; preds = %8, %1
  store i64 0, ptr %2, align 8
  br label %21

14:                                               ; preds = %8
  %15 = load ptr, ptr %3, align 8, !tbaa !56
  %16 = getelementptr inbounds nuw %"struct.rocksdb::BlockCacheTraceRecord", ptr %15, i32 0, i32 17
  %17 = call noundef ptr @_ZNKSt7__cxx1112basic_stringIcSt11char_traitsIcESaIcEE4dataEv(ptr noundef nonnull align 8 dereferenceable(32) %16) #5
  %18 = call noundef i32 @_ZN7rocksdb13DecodeFixed32EPKc(ptr noundef %17)
  %19 = zext i32 %18 to i64
  %20 = add i64 %19, 1
  store i64 %20, ptr %2, align 8
  br label %21

21:                                               ; preds = %14, %13
  %22 = load i64, ptr %2, align 8
  ret i64 %22
}