; Function Attrs: mustprogress nofree norecurse nosync nounwind willreturn memory(read, inaccessiblemem: none) uwtable
define noundef range(i64 0, 4294967297) i64 @_ZN7rocksdb21BlockCacheTraceHelper10GetTableIdERKNS_21BlockCacheTraceRecordE(ptr noundef nonnull readonly align 8 captures(none) dereferenceable(185) %0) local_unnamed_addr #8 align 2 {
  %2 = getelementptr inbounds nuw i8, ptr %0, i64 112
  %3 = load i8, ptr %2, align 8, !tbaa !18
  %4 = add i8 %3, -3
  %5 = icmp ult i8 %4, -2
  %6 = getelementptr inbounds nuw i8, ptr %0, i64 144
  %7 = load i64, ptr %6, align 8
  %8 = icmp ult i64 %7, 4
  %or.cond = select i1 %5, i1 true, i1 %8
  br i1 %or.cond, label %14, label %9

9:                                                ; preds = %1
  %10 = getelementptr inbounds nuw i8, ptr %0, i64 136
  %11 = load ptr, ptr %10, align 8, !tbaa !11
  %.0.copyload.i = load i32, ptr %11, align 1
  %12 = zext i32 %.0.copyload.i to i64
  %13 = add nuw nsw i64 %12, 1
  br label %14

14:                                               ; preds = %1, %9
  %.0 = phi i64 [ %13, %9 ], [ 0, %1 ]
  ret i64 %.0
}